target datalayout = "e-m:e-p270:32:32-p271:32:32-p272:64:64-i64:64-i128:128-f80:128-n8:16:32:64-S128"
target triple = "x86_64-pc-linux-gnu"

%"class.icu_77::UnicodeString" = type { %"class.icu_77::Replaceable", %"union.icu_77::UnicodeString::StackBufferOrFields" }
%"class.icu_77::Replaceable" = type { %"class.icu_77::UObject" }
%"class.icu_77::UObject" = type { ptr }
%"union.icu_77::UnicodeString::StackBufferOrFields" = type { %struct.anon.0, [32 x i8] }
%struct.anon.0 = type { i16, i32, i32, ptr }
%"class.icu_77::IDNAInfo" = type <{ i32, i32, i8, i8, i8, i8 }>
%"class.icu_77::ConstChar16Ptr" = type { ptr }
%"class.icu_77::Char16Ptr" = type { ptr }
%struct.UIDNAInfo = type { i16, i8, i8, i32, i32, i32 }

; Function Attrs: mustprogress nounwind uwtable
define linkonce_odr noundef i32 @_ZNK6icu_778IDNAInfo9getErrorsEv(ptr noundef nonnull align 4 dereferenceable(11) %0) #0 comdat align 2 {
  %2 = alloca ptr, align 8
  store ptr %0, ptr %2, align 8, !tbaa !27
  %3 = load ptr, ptr %2, align 8
  %4 = getelementptr inbounds nuw %"class.icu_77::IDNAInfo", ptr %3, i32 0, i32 0
  %5 = load i32, ptr %4, align 4, !tbaa !44
  ret i32 %5
}

; Function Attrs: mustprogress nounwind uwtable
define linkonce_odr noundef signext i8 @_ZNK6icu_778IDNAInfo23isTransitionalDifferentEv(ptr noundef nonnull align 4 dereferenceable(11) %0) #0 comdat align 2 {
  %2 = alloca ptr, align 8
  store ptr %0, ptr %2, align 8, !tbaa !27
  %3 = load ptr, ptr %2, align 8
  %4 = getelementptr inbounds nuw %"class.icu_77::IDNAInfo", ptr %3, i32 0, i32 2
  %5 = load i8, ptr %4, align 4, !tbaa !55
  ret i8 %5
}

; Function Attrs: inlinehint mustprogress nounwind uwtable
define internal noundef signext i8 @_ZL9U_FAILURE10UErrorCode(i32 noundef %0) #2 {
  %2 = alloca i32, align 4
  store i32 %0, ptr %2, align 4, !tbaa !15
  %3 = load i32, ptr %2, align 4, !tbaa !15
  %4 = icmp sgt i32 %3, 0
  %5 = zext i1 %4 to i8
  ret i8 %5
}

; Function Attrs: inlinehint mustprogress nounwind uwtable
define linkonce_odr void @_ZN6icu_779Char16PtrD2Ev(ptr noundef nonnull align 8 dereferenceable(8) %0) unnamed_addr #2 comdat align 2 {
  %2 = alloca ptr, align 8
  store ptr %0, ptr %2, align 8, !tbaa !96
  %3 = load ptr, ptr %2, align 8
  %4 = getelementptr inbounds nuw %"class.icu_77::Char16Ptr", ptr %3, i32 0, i32 0
  %5 = load ptr, ptr %4, align 8, !tbaa !98
  call void asm sideeffect "", "rm,~{memory},~{dirflag},~{fpsr},~{flags}"(ptr %5) #13, !srcloc !100
  ret void
}

; Function Attrs: inlinehint mustprogress nounwind uwtable
define linkonce_odr void @_ZN6icu_779Char16PtrC2EPDs(ptr noundef nonnull align 8 dereferenceable(8) %0, ptr noundef %1) unnamed_addr #2 comdat align 2 {
  %3 = alloca ptr, align 8
  %4 = alloca ptr, align 8
  store ptr %0, ptr %3, align 8, !tbaa !96
  store ptr %1, ptr %4, align 8, !tbaa !42
  %5 = load ptr, ptr %3, align 8
  %6 = getelementptr inbounds nuw %"class.icu_77::Char16Ptr", ptr %5, i32 0, i32 0
  %7 = load ptr, ptr %4, align 8, !tbaa !42
  store ptr %7, ptr %6, align 8, !tbaa !98
  ret void
}

; Function Attrs: mustprogress uwtable
define internal void @_ZL16idnaInfoToStructRN6icu_778IDNAInfoEP9UIDNAInfo(ptr noundef nonnull align 4 dereferenceable(11) %0, ptr noundef %1) #1 {
  %3 = alloca ptr, align 8
  %4 = alloca ptr, align 8
  store ptr %0, ptr %3, align 8, !tbaa !27
  store ptr %1, ptr %4, align 8, !tbaa !85
  %5 = load ptr, ptr %3, align 8, !tbaa !27
  %6 = call noundef signext i8 @_ZNK6icu_778IDNAInfo23isTransitionalDifferentEv(ptr noundef nonnull align 4 dereferenceable(11) %5)
  %7 = load ptr, ptr %4, align 8, !tbaa !85
  %8 = getelementptr inbounds nuw %struct.UIDNAInfo, ptr %7, i32 0, i32 1
  store i8 %6, ptr %8, align 2, !tbaa !94
  %9 = load ptr, ptr %3, align 8, !tbaa !27
  %10 = call noundef i32 @_ZNK6icu_778IDNAInfo9getErrorsEv(ptr noundef nonnull align 4 dereferenceable(11) %9)
  %11 = load ptr, ptr %4, align 8, !tbaa !85
  %12 = getelementptr inbounds nuw %struct.UIDNAInfo, ptr %11, i32 0, i32 3
  store i32 %10, ptr %12, align 4, !tbaa !95
  ret void
}

; Function Attrs: mustprogress nounwind uwtable
define linkonce_odr void @_ZN6icu_778IDNAInfoC2Ev(ptr noundef nonnull align 4 dereferenceable(11) %0) unnamed_addr #0 comdat align 2 {
  %2 = alloca ptr, align 8
  store ptr %0, ptr %2, align 8, !tbaa !27
  %3 = load ptr, ptr %2, align 8
  %4 = getelementptr inbounds nuw %"class.icu_77::IDNAInfo", ptr %3, i32 0, i32 0
  store i32 0, ptr %4, align 4, !tbaa !44
  %5 = getelementptr inbounds nuw %"class.icu_77::IDNAInfo", ptr %3, i32 0, i32 1
  store i32 0, ptr %5, align 4, !tbaa !46
  %6 = getelementptr inbounds nuw %"class.icu_77::IDNAInfo", ptr %3, i32 0, i32 2
  store i8 0, ptr %6, align 4, !tbaa !55
  %7 = getelementptr inbounds nuw %"class.icu_77::IDNAInfo", ptr %3, i32 0, i32 3
  store i8 0, ptr %7, align 1, !tbaa !51
  %8 = getelementptr inbounds nuw %"class.icu_77::IDNAInfo", ptr %3, i32 0, i32 4
  store i8 1, ptr %8, align 2, !tbaa !52
  ret void
}

; Function Attrs: inlinehint mustprogress nounwind uwtable
define linkonce_odr void @_ZN6icu_7714ConstChar16PtrD2Ev(ptr noundef nonnull align 8 dereferenceable(8) %0) unnamed_addr #2 comdat align 2 {
  %2 = alloca ptr, align 8
  store ptr %0, ptr %2, align 8, !tbaa !89
  %3 = load ptr, ptr %2, align 8
  %4 = getelementptr inbounds nuw %"class.icu_77::ConstChar16Ptr", ptr %3, i32 0, i32 0
  %5 = load ptr, ptr %4, align 8, !tbaa !91
  call void asm sideeffect "", "rm,~{memory},~{dirflag},~{fpsr},~{flags}"(ptr %5) #13, !srcloc !93
  ret void
}

; Function Attrs: inlinehint mustprogress nounwind uwtable
define linkonce_odr void @_ZN6icu_7714ConstChar16PtrC2EPKDs(ptr noundef nonnull align 8 dereferenceable(8) %0, ptr noundef %1) unnamed_addr #2 comdat align 2 {
  %3 = alloca ptr, align 8
  %4 = alloca ptr, align 8
  store ptr %0, ptr %3, align 8, !tbaa !89
  store ptr %1, ptr %4, align 8, !tbaa !42
  %5 = load ptr, ptr %3, align 8
  %6 = getelementptr inbounds nuw %"class.icu_77::ConstChar16Ptr", ptr %5, i32 0, i32 0
  %7 = load ptr, ptr %4, align 8, !tbaa !42
  store ptr %7, ptr %6, align 8, !tbaa !91
  ret void
}

; Function Attrs: mustprogress nounwind uwtable
define internal noundef signext i8 @_ZL9checkArgsPKviPviP9UIDNAInfoP10UErrorCode(ptr noundef %0, i32 noundef %1, ptr noundef %2, i32 noundef %3, ptr noundef %4, ptr noundef %5) #0 {
  %7 = alloca i8, align 1
  %8 = alloca ptr, align 8
  %9 = alloca i32, align 4
  %10 = alloca ptr, align 8
  %11 = alloca i32, align 4
  %12 = alloca ptr, align 8
  %13 = alloca ptr, align 8
  store ptr %0, ptr %8, align 8, !tbaa !22
  store i32 %1, ptr %9, align 4, !tbaa !14
  store ptr %2, ptr %10, align 8, !tbaa !22
  store i32 %3, ptr %11, align 4, !tbaa !14
  store ptr %4, ptr %12, align 8, !tbaa !85
  store ptr %5, ptr %13, align 8, !tbaa !22
  %14 = load ptr, ptr %13, align 8, !tbaa !22
  %15 = load i32, ptr %14, align 4, !tbaa !15
  %16 = call noundef signext i8 @_ZL9U_FAILURE10UErrorCode(i32 noundef %15)
  %17 = icmp ne i8 %16, 0
  br i1 %17, label %18, label %19

18:                                               ; preds = %6
  store i8 0, ptr %7, align 1
  br label %66

19:                                               ; preds = %6
  %20 = load ptr, ptr %12, align 8, !tbaa !85
  %21 = icmp eq ptr %20, null
  br i1 %21, label %28, label %22

22:                                               ; preds = %19
  %23 = load ptr, ptr %12, align 8, !tbaa !85
  %24 = getelementptr inbounds nuw %struct.UIDNAInfo, ptr %23, i32 0, i32 0
  %25 = load i16, ptr %24, align 4, !tbaa !87
  %26 = sext i16 %25 to i32
  %27 = icmp slt i32 %26, 16
  br i1 %27, label %28, label %30

28:                                               ; preds = %22, %19
  %29 = load ptr, ptr %13, align 8, !tbaa !22
  store i32 1, ptr %29, align 4, !tbaa !15
  store i8 0, ptr %7, align 1
  br label %66

30:                                               ; preds = %22
  %31 = load ptr, ptr %8, align 8, !tbaa !22
  %32 = icmp eq ptr %31, null
  br i1 %32, label %33, label %36

33:                                               ; preds = %30
  %34 = load i32, ptr %9, align 4, !tbaa !14
  %35 = icmp ne i32 %34, 0
  br i1 %35, label %55, label %39

36:                                               ; preds = %30
  %37 = load i32, ptr %9, align 4, !tbaa !14
  %38 = icmp slt i32 %37, -1
  br i1 %38, label %55, label %39

39:                                               ; preds = %36, %33
  %40 = load ptr, ptr %10, align 8, !tbaa !22
  %41 = icmp eq ptr %40, null
  br i1 %41, label %42, label %45

42:                                               ; preds = %39
  %43 = load i32, ptr %11, align 4, !tbaa !14
  %44 = icmp ne i32 %43, 0
  br i1 %44, label %55, label %48

45:                                               ; preds = %39
  %46 = load i32, ptr %11, align 4, !tbaa !14
  %47 = icmp slt i32 %46, 0
  br i1 %47, label %55, label %48

48:                                               ; preds = %45, %42
  %49 = load ptr, ptr %10, align 8, !tbaa !22
  %50 = load ptr, ptr %8, align 8, !tbaa !22
  %51 = icmp eq ptr %49, %50
  br i1 %51, label %52, label %57

52:                                               ; preds = %48
  %53 = load ptr, ptr %8, align 8, !tbaa !22
  %54 = icmp ne ptr %53, null
  br i1 %54, label %55, label %57

55:                                               ; preds = %52, %45, %42, %36, %33
  %56 = load ptr, ptr %13, align 8, !tbaa !22
  store i32 1, ptr %56, align 4, !tbaa !15
  store i8 0, ptr %7, align 1
  br label %66

57:                                               ; preds = %52, %48
  %58 = load ptr, ptr %12, align 8, !tbaa !85
  %59 = getelementptr inbounds nuw %struct.UIDNAInfo, ptr %58, i32 0, i32 0
  %60 = getelementptr inbounds i16, ptr %59, i64 1
  %61 = load ptr, ptr %12, align 8, !tbaa !85
  %62 = getelementptr inbounds nuw %struct.UIDNAInfo, ptr %61, i32 0, i32 0
  %63 = load i16, ptr %62, align 4, !tbaa !87
  %64 = sext i16 %63 to i64
  %65 = sub i64 %64, 2
  call void @llvm.memset.p0.i64(ptr align 2 %60, i8 0, i64 %65, i1 false)
  store i8 1, ptr %7, align 1
  br label %66

66:                                               ; preds = %57, %55, %28, %18
  %67 = load i8, ptr %7, align 1
  ret i8 %67
}

; Function Attrs: mustprogress uwtable
define i32 @uidna_labelToUnicode_77(ptr noundef %0, ptr noundef %1, i32 noundef %2, ptr noundef %3, i32 noundef %4, ptr noundef %5, ptr noundef %6) #1 personality ptr @__gxx_personality_v0 {
  %8 = alloca i32, align 4
  %9 = alloca ptr, align 8
  %10 = alloca ptr, align 8
  %11 = alloca i32, align 4
  %12 = alloca ptr, align 8
  %13 = alloca i32, align 4
  %14 = alloca ptr, align 8
  %15 = alloca ptr, align 8
  %16 = alloca %"class.icu_77::UnicodeString", align 8
  %17 = alloca %"class.icu_77::ConstChar16Ptr", align 8
  %18 = alloca ptr, align 8
  %19 = alloca i32, align 4
  %20 = alloca %"class.icu_77::UnicodeString", align 8
  %21 = alloca %"class.icu_77::IDNAInfo", align 4
  %22 = alloca %"class.icu_77::Char16Ptr", align 8
  store ptr %0, ptr %9, align 8, !tbaa !83
  store ptr %1, ptr %10, align 8, !tbaa !42
  store i32 %2, ptr %11, align 4, !tbaa !14
  store ptr %3, ptr %12, align 8, !tbaa !42
  store i32 %4, ptr %13, align 4, !tbaa !14
  store ptr %5, ptr %14, align 8, !tbaa !85
  store ptr %6, ptr %15, align 8, !tbaa !22
  %23 = load ptr, ptr %10, align 8, !tbaa !42
  %24 = load i32, ptr %11, align 4, !tbaa !14
  %25 = load ptr, ptr %12, align 8, !tbaa !42
  %26 = load i32, ptr %13, align 4, !tbaa !14
  %27 = load ptr, ptr %14, align 8, !tbaa !85
  %28 = load ptr, ptr %15, align 8, !tbaa !22
  %29 = call noundef signext i8 @_ZL9checkArgsPKviPviP9UIDNAInfoP10UErrorCode(ptr noundef %23, i32 noundef %24, ptr noundef %25, i32 noundef %26, ptr noundef %27, ptr noundef %28)
  %30 = icmp ne i8 %29, 0
  br i1 %30, label %32, label %31

31:                                               ; preds = %7
  store i32 0, ptr %8, align 4
  br label %77

32:                                               ; preds = %7
  call void @llvm.lifetime.start.p0(i64 64, ptr %16) #13
  %33 = load i32, ptr %11, align 4, !tbaa !14
  %34 = icmp slt i32 %33, 0
  %35 = zext i1 %34 to i8
  %36 = load ptr, ptr %10, align 8, !tbaa !42
  call void @_ZN6icu_7714ConstChar16PtrC2EPKDs(ptr noundef nonnull align 8 dereferenceable(8) %17, ptr noundef %36)
  %37 = load i32, ptr %11, align 4, !tbaa !14
  invoke void @_ZN6icu_7713UnicodeStringC1EaNS_14ConstChar16PtrEi(ptr noundef nonnull align 8 dereferenceable(64) %16, i8 noundef signext %35, ptr noundef %17, i32 noundef %37)
          to label %38 unwind label %58

38:                                               ; preds = %32
  call void @_ZN6icu_7714ConstChar16PtrD2Ev(ptr noundef nonnull align 8 dereferenceable(8) %17) #13
  call void @llvm.lifetime.start.p0(i64 64, ptr %20) #13
  %39 = load ptr, ptr %12, align 8, !tbaa !42
  %40 = load i32, ptr %13, align 4, !tbaa !14
  invoke void @_ZN6icu_7713UnicodeStringC1EPDsii(ptr noundef nonnull align 8 dereferenceable(64) %20, ptr noundef %39, i32 noundef 0, i32 noundef %40)
          to label %41 unwind label %62

41:                                               ; preds = %38
  call void @llvm.lifetime.start.p0(i64 12, ptr %21) #13
  invoke void @_ZN6icu_778IDNAInfoC2Ev(ptr noundef nonnull align 4 dereferenceable(11) %21)
          to label %42 unwind label %66

42:                                               ; preds = %41
  %43 = load ptr, ptr %9, align 8, !tbaa !83
  %44 = load ptr, ptr %15, align 8, !tbaa !22
  %45 = load ptr, ptr %43, align 8, !tbaa !29
  %46 = getelementptr inbounds ptr, ptr %45, i64 4
  %47 = load ptr, ptr %46, align 8
  %48 = invoke noundef nonnull align 8 dereferenceable(64) ptr %47(ptr noundef nonnull align 8 dereferenceable(8) %43, ptr noundef nonnull align 8 dereferenceable(64) %16, ptr noundef nonnull align 8 dereferenceable(64) %20, ptr noundef nonnull align 4 dereferenceable(11) %21, ptr noundef nonnull align 4 dereferenceable(4) %44)
          to label %49 unwind label %66

49:                                               ; preds = %42
  %50 = load ptr, ptr %14, align 8, !tbaa !85
  invoke void @_ZL16idnaInfoToStructRN6icu_778IDNAInfoEP9UIDNAInfo(ptr noundef nonnull align 4 dereferenceable(11) %21, ptr noundef %50)
          to label %51 unwind label %66

51:                                               ; preds = %49
  %52 = load ptr, ptr %12, align 8, !tbaa !42
  invoke void @_ZN6icu_779Char16PtrC2EPDs(ptr noundef nonnull align 8 dereferenceable(8) %22, ptr noundef %52)
          to label %53 unwind label %66

53:                                               ; preds = %51
  %54 = load i32, ptr %13, align 4, !tbaa !14
  %55 = load ptr, ptr %15, align 8, !tbaa !22
  %56 = invoke noundef i32 @_ZNK6icu_7713UnicodeString7extractENS_9Char16PtrEiR10UErrorCode(ptr noundef nonnull align 8 dereferenceable(64) %20, ptr noundef %22, i32 noundef %54, ptr noundef nonnull align 4 dereferenceable(4) %55)
          to label %57 unwind label %70

57:                                               ; preds = %53
  store i32 %56, ptr %8, align 4
  call void @_ZN6icu_779Char16PtrD2Ev(ptr noundef nonnull align 8 dereferenceable(8) %22) #13
  call void @llvm.lifetime.end.p0(i64 12, ptr %21) #13
  call void @_ZN6icu_7713UnicodeStringD1Ev(ptr noundef nonnull align 8 dereferenceable(64) %20) #13
  call void @llvm.lifetime.end.p0(i64 64, ptr %20) #13
  call void @_ZN6icu_7713UnicodeStringD1Ev(ptr noundef nonnull align 8 dereferenceable(64) %16) #13
  call void @llvm.lifetime.end.p0(i64 64, ptr %16) #13
  br label %77

58:                                               ; preds = %32
  %59 = landingpad { ptr, i32 }
          cleanup
  %60 = extractvalue { ptr, i32 } %59, 0
  store ptr %60, ptr %18, align 8
  %61 = extractvalue { ptr, i32 } %59, 1
  store i32 %61, ptr %19, align 4
  call void @_ZN6icu_7714ConstChar16PtrD2Ev(ptr noundef nonnull align 8 dereferenceable(8) %17) #13
  br label %76

62:                                               ; preds = %38
  %63 = landingpad { ptr, i32 }
          cleanup
  %64 = extractvalue { ptr, i32 } %63, 0
  store ptr %64, ptr %18, align 8
  %65 = extractvalue { ptr, i32 } %63, 1
  store i32 %65, ptr %19, align 4
  br label %75

66:                                               ; preds = %51, %49, %42, %41
  %67 = landingpad { ptr, i32 }
          cleanup
  %68 = extractvalue { ptr, i32 } %67, 0
  store ptr %68, ptr %18, align 8
  %69 = extractvalue { ptr, i32 } %67, 1
  store i32 %69, ptr %19, align 4
  br label %74

70:                                               ; preds = %53
  %71 = landingpad { ptr, i32 }
          cleanup
  %72 = extractvalue { ptr, i32 } %71, 0
  store ptr %72, ptr %18, align 8
  %73 = extractvalue { ptr, i32 } %71, 1
  store i32 %73, ptr %19, align 4
  call void @_ZN6icu_779Char16PtrD2Ev(ptr noundef nonnull align 8 dereferenceable(8) %22) #13
  br label %74

74:                                               ; preds = %70, %66
  call void @llvm.lifetime.end.p0(i64 12, ptr %21) #13
  call void @_ZN6icu_7713UnicodeStringD1Ev(ptr noundef nonnull align 8 dereferenceable(64) %20) #13
  br label %75

75:                                               ; preds = %74, %62
  call void @llvm.lifetime.end.p0(i64 64, ptr %20) #13
  call void @_ZN6icu_7713UnicodeStringD1Ev(ptr noundef nonnull align 8 dereferenceable(64) %16) #13
  br label %76

76:                                               ; preds = %75, %58
  call void @llvm.lifetime.end.p0(i64 64, ptr %16) #13
  br label %79

77:                                               ; preds = %57, %31
  %78 = load i32, ptr %8, align 4
  ret i32 %78

79:                                               ; preds = %76
  %80 = load ptr, ptr %18, align 8
  %81 = load i32, ptr %19, align 4
  %82 = insertvalue { ptr, i32 } poison, ptr %80, 0
  %83 = insertvalue { ptr, i32 } %82, i32 %81, 1
  resume { ptr, i32 } %83
}